
test:     file format elf32-i386


Disassembly of section .init:

080482b0 <_init>:
 80482b0:	53                   	push   %ebx
 80482b1:	83 ec 08             	sub    $0x8,%esp
 80482b4:	e8 a7 00 00 00       	call   8048360 <__x86.get_pc_thunk.bx>
 80482b9:	81 c3 33 14 00 00    	add    $0x1433,%ebx
 80482bf:	8b 83 fc ff ff ff    	mov    -0x4(%ebx),%eax
 80482c5:	85 c0                	test   %eax,%eax
 80482c7:	74 05                	je     80482ce <_init+0x1e>
 80482c9:	e8 42 00 00 00       	call   8048310 <__gmon_start__@plt>
 80482ce:	83 c4 08             	add    $0x8,%esp
 80482d1:	5b                   	pop    %ebx
 80482d2:	c3                   	ret    

Disassembly of section .plt:

080482e0 <gets@plt-0x10>:
 80482e0:	ff 35 f0 96 04 08    	pushl  0x80496f0
 80482e6:	ff 25 f4 96 04 08    	jmp    *0x80496f4
 80482ec:	00 00                	add    %al,(%eax)
	...

080482f0 <gets@plt>:
 80482f0:	ff 25 f8 96 04 08    	jmp    *0x80496f8
 80482f6:	68 00 00 00 00       	push   $0x0
 80482fb:	e9 e0 ff ff ff       	jmp    80482e0 <_init+0x30>

08048300 <puts@plt>:
 8048300:	ff 25 fc 96 04 08    	jmp    *0x80496fc
 8048306:	68 08 00 00 00       	push   $0x8
 804830b:	e9 d0 ff ff ff       	jmp    80482e0 <_init+0x30>

08048310 <__gmon_start__@plt>:
 8048310:	ff 25 00 97 04 08    	jmp    *0x8049700
 8048316:	68 10 00 00 00       	push   $0x10
 804831b:	e9 c0 ff ff ff       	jmp    80482e0 <_init+0x30>

08048320 <__libc_start_main@plt>:
 8048320:	ff 25 04 97 04 08    	jmp    *0x8049704
 8048326:	68 18 00 00 00       	push   $0x18
 804832b:	e9 b0 ff ff ff       	jmp    80482e0 <_init+0x30>

Disassembly of section .text:

08048330 <_start>:
 8048330:	31 ed                	xor    %ebp,%ebp
 8048332:	5e                   	pop    %esi
 8048333:	89 e1                	mov    %esp,%ecx
 8048335:	83 e4 f0             	and    $0xfffffff0,%esp
 8048338:	50                   	push   %eax
 8048339:	54                   	push   %esp
 804833a:	52                   	push   %edx
 804833b:	68 d0 84 04 08       	push   $0x80484d0
 8048340:	68 60 84 04 08       	push   $0x8048460
 8048345:	51                   	push   %ecx
 8048346:	56                   	push   %esi
 8048347:	68 4b 84 04 08       	push   $0x804844b
 804834c:	e8 cf ff ff ff       	call   8048320 <__libc_start_main@plt>
 8048351:	f4                   	hlt    
 8048352:	66 90                	xchg   %ax,%ax
 8048354:	66 90                	xchg   %ax,%ax
 8048356:	66 90                	xchg   %ax,%ax
 8048358:	66 90                	xchg   %ax,%ax
 804835a:	66 90                	xchg   %ax,%ax
 804835c:	66 90                	xchg   %ax,%ax
 804835e:	66 90                	xchg   %ax,%ax

08048360 <__x86.get_pc_thunk.bx>:
 8048360:	8b 1c 24             	mov    (%esp),%ebx
 8048363:	c3                   	ret    
 8048364:	66 90                	xchg   %ax,%ax
 8048366:	66 90                	xchg   %ax,%ax
 8048368:	66 90                	xchg   %ax,%ax
 804836a:	66 90                	xchg   %ax,%ax
 804836c:	66 90                	xchg   %ax,%ax
 804836e:	66 90                	xchg   %ax,%ax

08048370 <deregister_tm_clones>:
 8048370:	b8 13 97 04 08       	mov    $0x8049713,%eax
 8048375:	2d 10 97 04 08       	sub    $0x8049710,%eax
 804837a:	83 f8 06             	cmp    $0x6,%eax
 804837d:	76 1a                	jbe    8048399 <deregister_tm_clones+0x29>
 804837f:	b8 00 00 00 00       	mov    $0x0,%eax
 8048384:	85 c0                	test   %eax,%eax
 8048386:	74 11                	je     8048399 <deregister_tm_clones+0x29>
 8048388:	55                   	push   %ebp
 8048389:	89 e5                	mov    %esp,%ebp
 804838b:	83 ec 14             	sub    $0x14,%esp
 804838e:	68 10 97 04 08       	push   $0x8049710
 8048393:	ff d0                	call   *%eax
 8048395:	83 c4 10             	add    $0x10,%esp
 8048398:	c9                   	leave  
 8048399:	f3 c3                	repz ret 
 804839b:	90                   	nop
 804839c:	8d 74 26 00          	lea    0x0(%esi,%eiz,1),%esi

080483a0 <register_tm_clones>:
 80483a0:	b8 10 97 04 08       	mov    $0x8049710,%eax
 80483a5:	2d 10 97 04 08       	sub    $0x8049710,%eax
 80483aa:	c1 f8 02             	sar    $0x2,%eax
 80483ad:	89 c2                	mov    %eax,%edx
 80483af:	c1 ea 1f             	shr    $0x1f,%edx
 80483b2:	01 d0                	add    %edx,%eax
 80483b4:	d1 f8                	sar    %eax
 80483b6:	74 1b                	je     80483d3 <register_tm_clones+0x33>
 80483b8:	ba 00 00 00 00       	mov    $0x0,%edx
 80483bd:	85 d2                	test   %edx,%edx
 80483bf:	74 12                	je     80483d3 <register_tm_clones+0x33>
 80483c1:	55                   	push   %ebp
 80483c2:	89 e5                	mov    %esp,%ebp
 80483c4:	83 ec 10             	sub    $0x10,%esp
 80483c7:	50                   	push   %eax
 80483c8:	68 10 97 04 08       	push   $0x8049710
 80483cd:	ff d2                	call   *%edx
 80483cf:	83 c4 10             	add    $0x10,%esp
 80483d2:	c9                   	leave  
 80483d3:	f3 c3                	repz ret 
 80483d5:	8d 74 26 00          	lea    0x0(%esi,%eiz,1),%esi
 80483d9:	8d bc 27 00 00 00 00 	lea    0x0(%edi,%eiz,1),%edi

080483e0 <__do_global_dtors_aux>:
 80483e0:	80 3d 10 97 04 08 00 	cmpb   $0x0,0x8049710
 80483e7:	75 13                	jne    80483fc <__do_global_dtors_aux+0x1c>
 80483e9:	55                   	push   %ebp
 80483ea:	89 e5                	mov    %esp,%ebp
 80483ec:	83 ec 08             	sub    $0x8,%esp
 80483ef:	e8 7c ff ff ff       	call   8048370 <deregister_tm_clones>
 80483f4:	c6 05 10 97 04 08 01 	movb   $0x1,0x8049710
 80483fb:	c9                   	leave  
 80483fc:	f3 c3                	repz ret 
 80483fe:	66 90                	xchg   %ax,%ax

08048400 <frame_dummy>:
 8048400:	b8 fc 95 04 08       	mov    $0x80495fc,%eax
 8048405:	8b 10                	mov    (%eax),%edx
 8048407:	85 d2                	test   %edx,%edx
 8048409:	75 05                	jne    8048410 <frame_dummy+0x10>
 804840b:	eb 93                	jmp    80483a0 <register_tm_clones>
 804840d:	8d 76 00             	lea    0x0(%esi),%esi
 8048410:	ba 00 00 00 00       	mov    $0x0,%edx
 8048415:	85 d2                	test   %edx,%edx
 8048417:	74 f2                	je     804840b <frame_dummy+0xb>
 8048419:	55                   	push   %ebp
 804841a:	89 e5                	mov    %esp,%ebp
 804841c:	83 ec 14             	sub    $0x14,%esp
 804841f:	50                   	push   %eax
 8048420:	ff d2                	call   *%edx
 8048422:	83 c4 10             	add    $0x10,%esp
 8048425:	c9                   	leave  
 8048426:	e9 75 ff ff ff       	jmp    80483a0 <register_tm_clones>

0804842b <return_input>:
 804842b:	55                   	push   %ebp
 804842c:	89 e5                	mov    %esp,%ebp
 804842e:	83 ec 04             	sub    $0x4,%esp
 8048431:	8d 45 fc             	lea    -0x4(%ebp),%eax
 8048434:	50                   	push   %eax
 8048435:	e8 b6 fe ff ff       	call   80482f0 <gets@plt>
 804843a:	83 c4 04             	add    $0x4,%esp
 804843d:	8d 45 fc             	lea    -0x4(%ebp),%eax
 8048440:	50                   	push   %eax
 8048441:	e8 ba fe ff ff       	call   8048300 <puts@plt>
 8048446:	83 c4 04             	add    $0x4,%esp
 8048449:	c9                   	leave  
 804844a:	c3                   	ret    

0804844b <main>:
 804844b:	55                   	push   %ebp
 804844c:	89 e5                	mov    %esp,%ebp
 804844e:	e8 d8 ff ff ff       	call   804842b <return_input>
 8048453:	b8 00 00 00 00       	mov    $0x0,%eax
 8048458:	5d                   	pop    %ebp
 8048459:	c3                   	ret    
 804845a:	66 90                	xchg   %ax,%ax
 804845c:	66 90                	xchg   %ax,%ax
 804845e:	66 90                	xchg   %ax,%ax

08048460 <__libc_csu_init>:
 8048460:	55                   	push   %ebp
 8048461:	57                   	push   %edi
 8048462:	31 ff                	xor    %edi,%edi
 8048464:	56                   	push   %esi
 8048465:	53                   	push   %ebx
 8048466:	e8 f5 fe ff ff       	call   8048360 <__x86.get_pc_thunk.bx>
 804846b:	81 c3 81 12 00 00    	add    $0x1281,%ebx
 8048471:	83 ec 1c             	sub    $0x1c,%esp
 8048474:	8b 6c 24 30          	mov    0x30(%esp),%ebp
 8048478:	8d b3 0c ff ff ff    	lea    -0xf4(%ebx),%esi
 804847e:	e8 2d fe ff ff       	call   80482b0 <_init>
 8048483:	8d 83 08 ff ff ff    	lea    -0xf8(%ebx),%eax
 8048489:	29 c6                	sub    %eax,%esi
 804848b:	c1 fe 02             	sar    $0x2,%esi
 804848e:	85 f6                	test   %esi,%esi
 8048490:	74 27                	je     80484b9 <__libc_csu_init+0x59>
 8048492:	8d b6 00 00 00 00    	lea    0x0(%esi),%esi
 8048498:	8b 44 24 38          	mov    0x38(%esp),%eax
 804849c:	89 2c 24             	mov    %ebp,(%esp)
 804849f:	89 44 24 08          	mov    %eax,0x8(%esp)
 80484a3:	8b 44 24 34          	mov    0x34(%esp),%eax
 80484a7:	89 44 24 04          	mov    %eax,0x4(%esp)
 80484ab:	ff 94 bb 08 ff ff ff 	call   *-0xf8(%ebx,%edi,4)
 80484b2:	83 c7 01             	add    $0x1,%edi
 80484b5:	39 f7                	cmp    %esi,%edi
 80484b7:	75 df                	jne    8048498 <__libc_csu_init+0x38>
 80484b9:	83 c4 1c             	add    $0x1c,%esp
 80484bc:	5b                   	pop    %ebx
 80484bd:	5e                   	pop    %esi
 80484be:	5f                   	pop    %edi
 80484bf:	5d                   	pop    %ebp
 80484c0:	c3                   	ret    
 80484c1:	eb 0d                	jmp    80484d0 <__libc_csu_fini>
 80484c3:	90                   	nop
 80484c4:	90                   	nop
 80484c5:	90                   	nop
 80484c6:	90                   	nop
 80484c7:	90                   	nop
 80484c8:	90                   	nop
 80484c9:	90                   	nop
 80484ca:	90                   	nop
 80484cb:	90                   	nop
 80484cc:	90                   	nop
 80484cd:	90                   	nop
 80484ce:	90                   	nop
 80484cf:	90                   	nop

080484d0 <__libc_csu_fini>:
 80484d0:	f3 c3                	repz ret 

Disassembly of section .fini:

080484d4 <_fini>:
 80484d4:	53                   	push   %ebx
 80484d5:	83 ec 08             	sub    $0x8,%esp
 80484d8:	e8 83 fe ff ff       	call   8048360 <__x86.get_pc_thunk.bx>
 80484dd:	81 c3 0f 12 00 00    	add    $0x120f,%ebx
 80484e3:	83 c4 08             	add    $0x8,%esp
 80484e6:	5b                   	pop    %ebx
 80484e7:	c3                   	ret    
